target datalayout = "e-m:e-p270:32:32-p271:32:32-p272:64:64-i64:64-i128:128-f80:128-n8:16:32:64-S128"
target triple = "x86_64-pc-linux-gnu"

%struct.uv_loop_s = type { ptr, i32, %struct.uv__queue, %union.anon, ptr, i32, i64, i32, %struct.uv__queue, %struct.uv__queue, ptr, i32, i32, %struct.uv__queue, %union.pthread_mutex_t, %struct.uv_async_s, %union.pthread_rwlock_t, ptr, %struct.uv__queue, %struct.uv__queue, %struct.uv__queue, %struct.uv__queue, %struct.uv__queue, ptr, %struct.uv__io_s, i32, %struct.anon, i64, i64, [2 x i32], %struct.uv__io_s, %struct.uv_signal_s, i32, %struct.uv__io_s, ptr, i32 }
%union.anon = type { ptr }
%union.pthread_mutex_t = type { %struct.__pthread_mutex_s }
%struct.__pthread_mutex_s = type { i32, i32, i32, i32, i32, i16, i16, %struct.__pthread_internal_list }
%struct.__pthread_internal_list = type { ptr, ptr }
%struct.uv_async_s = type { ptr, ptr, i32, ptr, %struct.uv__queue, %union.anon.0, ptr, i32, ptr, %struct.uv__queue, i32 }
%union.anon.0 = type { [4 x ptr] }
%union.pthread_rwlock_t = type { %struct.__pthread_rwlock_arch_t }
%struct.__pthread_rwlock_arch_t = type { i32, i32, i32, i32, i32, i32, i32, i32, i8, [7 x i8], i64, i32 }
%struct.uv__queue = type { ptr, ptr }
%struct.anon = type { ptr, i32 }
%struct.uv_signal_s = type { ptr, ptr, i32, ptr, %struct.uv__queue, %union.anon.1, ptr, i32, ptr, i32, %struct.anon.2, i32, i32 }
%union.anon.1 = type { [4 x ptr] }
%struct.anon.2 = type { ptr, ptr, ptr, i32 }
%struct.uv__io_s = type { ptr, %struct.uv__queue, %struct.uv__queue, i32, i32, i32 }
%struct.uv__loop_internal_fields_s = type { i32, %struct.uv__loop_metrics_s, i32, %struct.uv__iou, %struct.uv__iou, ptr }
%struct.uv__loop_metrics_s = type { %struct.uv_metrics_s, i64, i64, %union.pthread_mutex_t }
%struct.uv_metrics_s = type { i64, i64, i64, [13 x ptr] }
%struct.uv__iou = type { ptr, ptr, i32, ptr, ptr, ptr, i32, ptr, ptr, ptr, i64, i64, i64, i64, i32, i32 }
%struct.epoll_event = type <{ i32, %union.epoll_data }>
%union.epoll_data = type { ptr }
%struct.uv__invalidate = type { ptr, ptr, i32 }

; Function Attrs: nounwind uwtable
define hidden void @uv__platform_invalidate_fd(ptr noundef %0, i32 noundef %1) #0 {
  %3 = alloca ptr, align 8
  %4 = alloca i32, align 4
  %5 = alloca ptr, align 8
  %6 = alloca ptr, align 8
  %7 = alloca %struct.epoll_event, align 1
  %8 = alloca i32, align 4
  store ptr %0, ptr %3, align 8
  store i32 %1, ptr %4, align 4
  call void @llvm.lifetime.start.p0(i64 8, ptr %5) #12
  call void @llvm.lifetime.start.p0(i64 8, ptr %6) #12
  call void @llvm.lifetime.start.p0(i64 12, ptr %7) #12
  call void @llvm.lifetime.start.p0(i64 4, ptr %8) #12
  %9 = load ptr, ptr %3, align 8
  %10 = getelementptr inbounds nuw %struct.uv_loop_s, ptr %9, i32 0, i32 4
  %11 = load ptr, ptr %10, align 8
  store ptr %11, ptr %5, align 8
  %12 = load ptr, ptr %5, align 8
  %13 = getelementptr inbounds nuw %struct.uv__loop_internal_fields_s, ptr %12, i32 0, i32 5
  %14 = load ptr, ptr %13, align 8
  store ptr %14, ptr %6, align 8
  %15 = load ptr, ptr %6, align 8
  %16 = icmp ne ptr %15, null
  br i1 %16, label %17, label %48

17:                                               ; preds = %2
  store i32 0, ptr %8, align 4
  br label %18

18:                                               ; preds = %44, %17
  %19 = load i32, ptr %8, align 4
  %20 = load ptr, ptr %6, align 8
  %21 = getelementptr inbounds nuw %struct.uv__invalidate, ptr %20, i32 0, i32 2
  %22 = load i32, ptr %21, align 8
  %23 = icmp slt i32 %19, %22
  br i1 %23, label %24, label %47

24:                                               ; preds = %18
  %25 = load ptr, ptr %6, align 8
  %26 = getelementptr inbounds nuw %struct.uv__invalidate, ptr %25, i32 0, i32 1
  %27 = load ptr, ptr %26, align 8
  %28 = load i32, ptr %8, align 4
  %29 = sext i32 %28 to i64
  %30 = getelementptr inbounds %struct.epoll_event, ptr %27, i64 %29
  %31 = getelementptr inbounds nuw %struct.epoll_event, ptr %30, i32 0, i32 1
  %32 = load i32, ptr %31, align 1
  %33 = load i32, ptr %4, align 4
  %34 = icmp eq i32 %32, %33
  br i1 %34, label %35, label %43

35:                                               ; preds = %24
  %36 = load ptr, ptr %6, align 8
  %37 = getelementptr inbounds nuw %struct.uv__invalidate, ptr %36, i32 0, i32 1
  %38 = load ptr, ptr %37, align 8
  %39 = load i32, ptr %8, align 4
  %40 = sext i32 %39 to i64
  %41 = getelementptr inbounds %struct.epoll_event, ptr %38, i64 %40
  %42 = getelementptr inbounds nuw %struct.epoll_event, ptr %41, i32 0, i32 1
  store i32 -1, ptr %42, align 1
  br label %43

43:                                               ; preds = %35, %24
  br label %44

44:                                               ; preds = %43
  %45 = load i32, ptr %8, align 4
  %46 = add nsw i32 %45, 1
  store i32 %46, ptr %8, align 4
  br label %18

47:                                               ; preds = %18
  br label %48

48:                                               ; preds = %47, %2
  call void @llvm.memset.p0.i64(ptr align 1 %7, i8 0, i64 12, i1 false)
  %49 = load ptr, ptr %3, align 8
  %50 = getelementptr inbounds nuw %struct.uv_loop_s, ptr %49, i32 0, i32 7
  %51 = load i32, ptr %50, align 8
  %52 = load i32, ptr %4, align 4
  %53 = call i32 @epoll_ctl(i32 noundef %51, i32 noundef 2, i32 noundef %52, ptr noundef %7) #12
  call void @llvm.lifetime.end.p0(i64 4, ptr %8) #12
  call void @llvm.lifetime.end.p0(i64 12, ptr %7) #12
  call void @llvm.lifetime.end.p0(i64 8, ptr %6) #12
  call void @llvm.lifetime.end.p0(i64 8, ptr %5) #12
  ret void
}