; Function Attrs: nounwind uwtable
define hidden void @uv__platform_invalidate_fd(ptr noundef readonly captures(none) %0, i32 noundef %1) local_unnamed_addr #0 {
  %3 = alloca %struct.epoll_event, align 1
  call void @llvm.lifetime.start.p0(i64 12, ptr nonnull %3) #17
  %4 = getelementptr inbounds nuw i8, ptr %0, i64 40
  %5 = load ptr, ptr %4, align 8
  %6 = getelementptr inbounds nuw i8, ptr %5, i64 440
  %7 = load ptr, ptr %6, align 8
  %.not = icmp eq ptr %7, null
  br i1 %.not, label %.loopexit, label %.preheader

.preheader:                                       ; preds = %2
  %8 = getelementptr inbounds nuw i8, ptr %7, i64 16
  %9 = load i32, ptr %8, align 8
  %10 = icmp sgt i32 %9, 0
  br i1 %10, label %.lr.ph, label %.loopexit

.lr.ph:                                           ; preds = %.preheader
  %11 = getelementptr inbounds nuw i8, ptr %7, i64 8
  br label %12

12:                                               ; preds = %.lr.ph, %19
  %13 = phi i32 [ %9, %.lr.ph ], [ %20, %19 ]
  %indvars.iv = phi i64 [ 0, %.lr.ph ], [ %indvars.iv.next, %19 ]
  %14 = load ptr, ptr %11, align 8
  %15 = getelementptr inbounds nuw %struct.epoll_event, ptr %14, i64 %indvars.iv, i32 1
  %16 = load i32, ptr %15, align 1
  %17 = icmp eq i32 %16, %1
  br i1 %17, label %18, label %19

18:                                               ; preds = %12
  store i32 -1, ptr %15, align 1
  %.pre = load i32, ptr %8, align 8
  br label %19

19:                                               ; preds = %12, %18
  %20 = phi i32 [ %13, %12 ], [ %.pre, %18 ]
  %indvars.iv.next = add nuw nsw i64 %indvars.iv, 1
  %21 = sext i32 %20 to i64
  %22 = icmp slt i64 %indvars.iv.next, %21
  br i1 %22, label %12, label %.loopexit

.loopexit:                                        ; preds = %19, %.preheader, %2
  call void @llvm.memset.p0.i64(ptr noundef nonnull align 1 dereferenceable(12) %3, i8 0, i64 12, i1 false)
  %23 = getelementptr inbounds nuw i8, ptr %0, i64 64
  %24 = load i32, ptr %23, align 8
  %25 = call i32 @epoll_ctl(i32 noundef %24, i32 noundef 2, i32 noundef %1, ptr noundef nonnull %3) #17
  call void @llvm.lifetime.end.p0(i64 12, ptr nonnull %3) #17
  ret void
}